target datalayout = "e-m:e-p270:32:32-p271:32:32-p272:64:64-i64:64-i128:128-f80:128-n8:16:32:64-S128"
target triple = "x86_64-unknown-linux-gnu"

%"class.icu_75::UObject" = type { ptr }
%"class.icu_75::DateFormat" = type { %"class.icu_75::Format.base", ptr, ptr, %"class.icu_75::EnumSet", i32 }
%"class.icu_75::Format.base" = type <{ %"class.icu_75::UObject", [157 x i8], [157 x i8] }>
%"class.icu_75::EnumSet" = type { i32 }

; Function Attrs: mustprogress uwtable
define void @_ZN6icu_7510DateFormat17adoptNumberFormatEPNS_12NumberFormatE(ptr noundef nonnull align 8 dereferenceable(352) %this, ptr noundef %newNumberFormat) unnamed_addr #2 align 2 {
entry:
  %this.addr = alloca ptr, align 8
  %newNumberFormat.addr = alloca ptr, align 8
  store ptr %this, ptr %this.addr, align 8
  store ptr %newNumberFormat, ptr %newNumberFormat.addr, align 8
  %this1 = load ptr, ptr %this.addr, align 8
  %fNumberFormat = getelementptr inbounds %"class.icu_75::DateFormat", ptr %this1, i32 0, i32 2
  %0 = load ptr, ptr %fNumberFormat, align 8
  %isnull = icmp eq ptr %0, null
  br i1 %isnull, label %delete.end, label %delete.notnull

delete.notnull:                                   ; preds = %entry
  %vtable = load ptr, ptr %0, align 8
  %vfn = getelementptr inbounds ptr, ptr %vtable, i64 1
  %1 = load ptr, ptr %vfn, align 8
  call void %1(ptr noundef nonnull align 8 dereferenceable(356) %0) #7
  br label %delete.end

delete.end:                                       ; preds = %delete.notnull, %entry
  %2 = load ptr, ptr %newNumberFormat.addr, align 8
  %fNumberFormat2 = getelementptr inbounds %"class.icu_75::DateFormat", ptr %this1, i32 0, i32 2
  store ptr %2, ptr %fNumberFormat2, align 8
  %3 = load ptr, ptr %newNumberFormat.addr, align 8
  %vtable3 = load ptr, ptr %3, align 8
  %vfn4 = getelementptr inbounds ptr, ptr %vtable3, i64 23
  %4 = load ptr, ptr %vfn4, align 8
  call void %4(ptr noundef nonnull align 8 dereferenceable(356) %3, i8 noundef signext 1)
  %5 = load ptr, ptr %newNumberFormat.addr, align 8
  %vtable5 = load ptr, ptr %5, align 8
  %vfn6 = getelementptr inbounds ptr, ptr %vtable5, i64 26
  %6 = load ptr, ptr %vfn6, align 8
  call void %6(ptr noundef nonnull align 8 dereferenceable(356) %5, i8 noundef signext 0)
  ret void
}