; Function Attrs: mustprogress uwtable
define void @_ZN6icu_7510DateFormat17adoptNumberFormatEPNS_12NumberFormatE(ptr nocapture noundef nonnull align 8 dereferenceable(352) %this, ptr noundef %newNumberFormat) unnamed_addr #3 align 2 {
entry:
  %fNumberFormat = getelementptr inbounds i8, ptr %this, i64 336
  %0 = load ptr, ptr %fNumberFormat, align 8
  %isnull = icmp eq ptr %0, null
  br i1 %isnull, label %delete.end, label %delete.notnull

delete.notnull:                                   ; preds = %entry
  %vtable = load ptr, ptr %0, align 8
  %vfn = getelementptr inbounds i8, ptr %vtable, i64 8
  %1 = load ptr, ptr %vfn, align 8
  tail call void %1(ptr noundef nonnull align 8 dereferenceable(356) %0) #13
  br label %delete.end

delete.end:                                       ; preds = %delete.notnull, %entry
  store ptr %newNumberFormat, ptr %fNumberFormat, align 8
  %vtable3 = load ptr, ptr %newNumberFormat, align 8
  %vfn4 = getelementptr inbounds i8, ptr %vtable3, i64 184
  %2 = load ptr, ptr %vfn4, align 8
  tail call void %2(ptr noundef nonnull align 8 dereferenceable(356) %newNumberFormat, i8 noundef signext 1)
  %vtable5 = load ptr, ptr %newNumberFormat, align 8
  %vfn6 = getelementptr inbounds i8, ptr %vtable5, i64 208
  %3 = load ptr, ptr %vfn6, align 8
  tail call void %3(ptr noundef nonnull align 8 dereferenceable(356) %newNumberFormat, i8 noundef signext 0)
  ret void
}